; Function Attrs: mustprogress nounwind uwtable
define hidden void @_ZNK21vadd_reg_masked_1Node4emitEP17C2_MacroAssemblerP13PhaseRegAlloc(ptr noundef nonnull align 8 dereferenceable(104) %0, ptr noundef %1, ptr noundef %2) unnamed_addr #3 align 2 {
  %4 = getelementptr inbounds i8, ptr %0, i64 80
  %5 = load ptr, ptr %4, align 8
  %6 = load ptr, ptr %5, align 8
  %7 = getelementptr inbounds i8, ptr %6, i64 8
  %8 = load ptr, ptr %7, align 8
  %9 = tail call noundef i32 %8(ptr noundef nonnull align 8 dereferenceable(8) %5) #23
  %10 = getelementptr inbounds i8, ptr %0, i64 88
  %11 = load ptr, ptr %10, align 8
  %12 = load ptr, ptr %11, align 8
  %13 = getelementptr inbounds i8, ptr %12, i64 8
  %14 = load ptr, ptr %13, align 8
  %15 = tail call noundef i32 %14(ptr noundef nonnull align 8 dereferenceable(8) %11) #23
  %16 = tail call noundef i32 @_ZN7Matcher22vector_length_in_bytesEPK4Node(ptr noundef nonnull %0) #23
  switch i32 %16, label %19 [
    i32 4, label %_ZL22vector_length_encodingPK4Node.exit
    i32 8, label %_ZL22vector_length_encodingPK4Node.exit
    i32 16, label %_ZL22vector_length_encodingPK4Node.exit
    i32 32, label %17
    i32 64, label %18
  ]

17:                                               ; preds = %3
  br label %_ZL22vector_length_encodingPK4Node.exit

18:                                               ; preds = %3
  br label %_ZL22vector_length_encodingPK4Node.exit

19:                                               ; preds = %3
  %20 = load ptr, ptr @g_assert_poison, align 8
  store i8 88, ptr %20, align 1
  tail call void @_Z28report_should_not_reach_herePKci(ptr noundef nonnull @.str.22, i32 noundef 1228) #24
  unreachable

_ZL22vector_length_encodingPK4Node.exit:          ; preds = %3, %3, %3, %17, %18
  %.0.i.i = phi i32 [ 2, %18 ], [ 1, %17 ], [ 0, %3 ], [ 0, %3 ], [ 0, %3 ]
  %21 = add i32 %9, 1
  %22 = add i32 %15, %21
  %23 = tail call noundef zeroext i8 @_ZN7Matcher25vector_element_basic_typeEPK4Node(ptr noundef nonnull %0) #23
  %24 = load ptr, ptr %0, align 8
  %25 = getelementptr inbounds i8, ptr %24, i64 328
  %26 = load ptr, ptr %25, align 8
  %27 = tail call noundef i32 %26(ptr noundef nonnull align 8 dereferenceable(104) %0) #23
  %28 = getelementptr inbounds i8, ptr %0, i64 96
  %29 = load ptr, ptr %28, align 8
  %30 = load ptr, ptr %29, align 8
  %31 = getelementptr inbounds i8, ptr %30, i64 40
  %32 = load ptr, ptr %31, align 8
  %33 = tail call noundef i32 %32(ptr noundef nonnull align 8 dereferenceable(8) %29, ptr noundef %2, ptr noundef nonnull %0, i32 noundef %22) #23
  %or.cond.i.i = icmp ult i32 %33, 8
  %spec.select.i.i = select i1 %or.cond.i.i, i32 %33, i32 -1
  %34 = load ptr, ptr %4, align 8
  %35 = load ptr, ptr %34, align 8
  %36 = getelementptr inbounds i8, ptr %35, i64 40
  %37 = load ptr, ptr %36, align 8
  %38 = tail call noundef i32 %37(ptr noundef nonnull align 8 dereferenceable(8) %34, ptr noundef %2, ptr noundef nonnull %0, i32 noundef 1) #23
  %or.cond.i.i17 = icmp ult i32 %38, 32
  %spec.select.i.i18 = select i1 %or.cond.i.i17, i32 %38, i32 -1
  %39 = load ptr, ptr %4, align 8
  %40 = load ptr, ptr %39, align 8
  %41 = getelementptr inbounds i8, ptr %40, i64 40
  %42 = load ptr, ptr %41, align 8
  %43 = tail call noundef i32 %42(ptr noundef nonnull align 8 dereferenceable(8) %39, ptr noundef %2, ptr noundef nonnull %0, i32 noundef 1) #23
  %or.cond.i.i19 = icmp ult i32 %43, 32
  %spec.select.i.i20 = select i1 %or.cond.i.i19, i32 %43, i32 -1
  %44 = load ptr, ptr %10, align 8
  %45 = load ptr, ptr %44, align 8
  %46 = getelementptr inbounds i8, ptr %45, i64 40
  %47 = load ptr, ptr %46, align 8
  %48 = tail call noundef i32 %47(ptr noundef nonnull align 8 dereferenceable(8) %44, ptr noundef %2, ptr noundef nonnull %0, i32 noundef %21) #23
  %or.cond.i.i21 = icmp ult i32 %48, 32
  %spec.select.i.i22 = select i1 %or.cond.i.i21, i32 %48, i32 -1
  tail call void @_ZN17C2_MacroAssembler11evmasked_opEi9BasicType9KRegister11XMMRegisterS2_S2_bib(ptr noundef nonnull align 8 dereferenceable(40) %1, i32 noundef %27, i8 noundef zeroext %23, i32 %spec.select.i.i, i32 %spec.select.i.i18, i32 %spec.select.i.i20, i32 %spec.select.i.i22, i1 noundef zeroext true, i32 noundef %.0.i.i, i1 noundef zeroext false) #23
  ret void
}